target datalayout = "e-m:e-p270:32:32-p271:32:32-p272:64:64-i64:64-i128:128-f80:128-n8:16:32:64-S128"
target triple = "x86_64-pc-linux-gnu"

%struct.ComplexMatrixN = type { i32, ptr, ptr }

; Function Attrs: nounwind uwtable
define void @populateKrausSuperOperatorN(ptr noundef %0, ptr noundef %1, i32 noundef %2) #0 {
  %4 = alloca ptr, align 8
  %5 = alloca ptr, align 8
  %6 = alloca i32, align 4
  %7 = alloca i32, align 4
  %8 = alloca i32, align 4
  %9 = alloca i32, align 4
  %10 = alloca i32, align 4
  %11 = alloca i32, align 4
  %12 = alloca i32, align 4
  %13 = alloca i32, align 4
  %14 = alloca i32, align 4
  %15 = alloca i32, align 4
  store ptr %0, ptr %4, align 8, !tbaa !60
  store ptr %1, ptr %5, align 8, !tbaa !60
  store i32 %2, ptr %6, align 4, !tbaa !9
  call void @llvm.lifetime.start.p0(i64 4, ptr %7) #8
  %16 = load ptr, ptr %5, align 8, !tbaa !60
  %17 = getelementptr inbounds %struct.ComplexMatrixN, ptr %16, i64 0
  %18 = getelementptr inbounds nuw %struct.ComplexMatrixN, ptr %17, i32 0, i32 0
  %19 = load i32, ptr %18, align 8, !tbaa !22
  %20 = shl i32 1, %19
  store i32 %20, ptr %7, align 4, !tbaa !9
  call void @llvm.lifetime.start.p0(i64 4, ptr %8) #8
  store i32 0, ptr %8, align 4, !tbaa !9
  br label %21

21:                                               ; preds = %61, %3
  %22 = load i32, ptr %8, align 4, !tbaa !9
  %23 = load i32, ptr %7, align 4, !tbaa !9
  %24 = load i32, ptr %7, align 4, !tbaa !9
  %25 = mul nsw i32 %23, %24
  %26 = icmp slt i32 %22, %25
  br i1 %26, label %28, label %27

27:                                               ; preds = %21
  store i32 2, ptr %9, align 4
  call void @llvm.lifetime.end.p0(i64 4, ptr %8) #8
  br label %64

28:                                               ; preds = %21
  call void @llvm.lifetime.start.p0(i64 4, ptr %10) #8
  store i32 0, ptr %10, align 4, !tbaa !9
  br label %29

29:                                               ; preds = %57, %28
  %30 = load i32, ptr %10, align 4, !tbaa !9
  %31 = load i32, ptr %7, align 4, !tbaa !9
  %32 = load i32, ptr %7, align 4, !tbaa !9
  %33 = mul nsw i32 %31, %32
  %34 = icmp slt i32 %30, %33
  br i1 %34, label %36, label %35

35:                                               ; preds = %29
  store i32 5, ptr %9, align 4
  call void @llvm.lifetime.end.p0(i64 4, ptr %10) #8
  br label %60

36:                                               ; preds = %29
  %37 = load ptr, ptr %4, align 8, !tbaa !60
  %38 = getelementptr inbounds nuw %struct.ComplexMatrixN, ptr %37, i32 0, i32 1
  %39 = load ptr, ptr %38, align 8, !tbaa !26
  %40 = load i32, ptr %8, align 4, !tbaa !9
  %41 = sext i32 %40 to i64
  %42 = getelementptr inbounds ptr, ptr %39, i64 %41
  %43 = load ptr, ptr %42, align 8, !tbaa !27
  %44 = load i32, ptr %10, align 4, !tbaa !9
  %45 = sext i32 %44 to i64
  %46 = getelementptr inbounds double, ptr %43, i64 %45
  store double 0.000000e+00, ptr %46, align 8, !tbaa !18
  %47 = load ptr, ptr %4, align 8, !tbaa !60
  %48 = getelementptr inbounds nuw %struct.ComplexMatrixN, ptr %47, i32 0, i32 2
  %49 = load ptr, ptr %48, align 8, !tbaa !29
  %50 = load i32, ptr %8, align 4, !tbaa !9
  %51 = sext i32 %50 to i64
  %52 = getelementptr inbounds ptr, ptr %49, i64 %51
  %53 = load ptr, ptr %52, align 8, !tbaa !27
  %54 = load i32, ptr %10, align 4, !tbaa !9
  %55 = sext i32 %54 to i64
  %56 = getelementptr inbounds double, ptr %53, i64 %55
  store double 0.000000e+00, ptr %56, align 8, !tbaa !18
  br label %57

57:                                               ; preds = %36
  %58 = load i32, ptr %10, align 4, !tbaa !9
  %59 = add nsw i32 %58, 1
  store i32 %59, ptr %10, align 4, !tbaa !9
  br label %29

60:                                               ; preds = %35
  br label %61

61:                                               ; preds = %60
  %62 = load i32, ptr %8, align 4, !tbaa !9
  %63 = add nsw i32 %62, 1
  store i32 %63, ptr %8, align 4, !tbaa !9
  br label %21

64:                                               ; preds = %27
  call void @llvm.lifetime.start.p0(i64 4, ptr %11) #8
  store i32 0, ptr %11, align 4, !tbaa !9
  br label %65

65:                                               ; preds = %268, %64
  %66 = load i32, ptr %11, align 4, !tbaa !9
  %67 = load i32, ptr %6, align 4, !tbaa !9
  %68 = icmp slt i32 %66, %67
  br i1 %68, label %70, label %69

69:                                               ; preds = %65
  store i32 8, ptr %9, align 4
  call void @llvm.lifetime.end.p0(i64 4, ptr %11) #8
  br label %271

70:                                               ; preds = %65
  call void @llvm.lifetime.start.p0(i64 4, ptr %12) #8
  store i32 0, ptr %12, align 4, !tbaa !9
  br label %71

71:                                               ; preds = %264, %70
  %72 = load i32, ptr %12, align 4, !tbaa !9
  %73 = load i32, ptr %7, align 4, !tbaa !9
  %74 = icmp slt i32 %72, %73
  br i1 %74, label %76, label %75

75:                                               ; preds = %71
  store i32 11, ptr %9, align 4
  call void @llvm.lifetime.end.p0(i64 4, ptr %12) #8
  br label %267

76:                                               ; preds = %71
  call void @llvm.lifetime.start.p0(i64 4, ptr %13) #8
  store i32 0, ptr %13, align 4, !tbaa !9
  br label %77

77:                                               ; preds = %260, %76
  %78 = load i32, ptr %13, align 4, !tbaa !9
  %79 = load i32, ptr %7, align 4, !tbaa !9
  %80 = icmp slt i32 %78, %79
  br i1 %80, label %82, label %81

81:                                               ; preds = %77
  store i32 14, ptr %9, align 4
  call void @llvm.lifetime.end.p0(i64 4, ptr %13) #8
  br label %263

82:                                               ; preds = %77
  call void @llvm.lifetime.start.p0(i64 4, ptr %14) #8
  store i32 0, ptr %14, align 4, !tbaa !9
  br label %83

83:                                               ; preds = %256, %82
  %84 = load i32, ptr %14, align 4, !tbaa !9
  %85 = load i32, ptr %7, align 4, !tbaa !9
  %86 = icmp slt i32 %84, %85
  br i1 %86, label %88, label %87

87:                                               ; preds = %83
  store i32 17, ptr %9, align 4
  call void @llvm.lifetime.end.p0(i64 4, ptr %14) #8
  br label %259

88:                                               ; preds = %83
  call void @llvm.lifetime.start.p0(i64 4, ptr %15) #8
  store i32 0, ptr %15, align 4, !tbaa !9
  br label %89

89:                                               ; preds = %252, %88
  %90 = load i32, ptr %15, align 4, !tbaa !9
  %91 = load i32, ptr %7, align 4, !tbaa !9
  %92 = icmp slt i32 %90, %91
  br i1 %92, label %94, label %93

93:                                               ; preds = %89
  store i32 20, ptr %9, align 4
  call void @llvm.lifetime.end.p0(i64 4, ptr %15) #8
  br label %255

94:                                               ; preds = %89
  %95 = load ptr, ptr %5, align 8, !tbaa !60
  %96 = load i32, ptr %11, align 4, !tbaa !9
  %97 = sext i32 %96 to i64
  %98 = getelementptr inbounds %struct.ComplexMatrixN, ptr %95, i64 %97
  %99 = getelementptr inbounds nuw %struct.ComplexMatrixN, ptr %98, i32 0, i32 1
  %100 = load ptr, ptr %99, align 8, !tbaa !26
  %101 = load i32, ptr %12, align 4, !tbaa !9
  %102 = sext i32 %101 to i64
  %103 = getelementptr inbounds ptr, ptr %100, i64 %102
  %104 = load ptr, ptr %103, align 8, !tbaa !27
  %105 = load i32, ptr %13, align 4, !tbaa !9
  %106 = sext i32 %105 to i64
  %107 = getelementptr inbounds double, ptr %104, i64 %106
  %108 = load double, ptr %107, align 8, !tbaa !18
  %109 = load ptr, ptr %5, align 8, !tbaa !60
  %110 = load i32, ptr %11, align 4, !tbaa !9
  %111 = sext i32 %110 to i64
  %112 = getelementptr inbounds %struct.ComplexMatrixN, ptr %109, i64 %111
  %113 = getelementptr inbounds nuw %struct.ComplexMatrixN, ptr %112, i32 0, i32 1
  %114 = load ptr, ptr %113, align 8, !tbaa !26
  %115 = load i32, ptr %14, align 4, !tbaa !9
  %116 = sext i32 %115 to i64
  %117 = getelementptr inbounds ptr, ptr %114, i64 %116
  %118 = load ptr, ptr %117, align 8, !tbaa !27
  %119 = load i32, ptr %15, align 4, !tbaa !9
  %120 = sext i32 %119 to i64
  %121 = getelementptr inbounds double, ptr %118, i64 %120
  %122 = load double, ptr %121, align 8, !tbaa !18
  %123 = load ptr, ptr %5, align 8, !tbaa !60
  %124 = load i32, ptr %11, align 4, !tbaa !9
  %125 = sext i32 %124 to i64
  %126 = getelementptr inbounds %struct.ComplexMatrixN, ptr %123, i64 %125
  %127 = getelementptr inbounds nuw %struct.ComplexMatrixN, ptr %126, i32 0, i32 2
  %128 = load ptr, ptr %127, align 8, !tbaa !29
  %129 = load i32, ptr %12, align 4, !tbaa !9
  %130 = sext i32 %129 to i64
  %131 = getelementptr inbounds ptr, ptr %128, i64 %130
  %132 = load ptr, ptr %131, align 8, !tbaa !27
  %133 = load i32, ptr %13, align 4, !tbaa !9
  %134 = sext i32 %133 to i64
  %135 = getelementptr inbounds double, ptr %132, i64 %134
  %136 = load double, ptr %135, align 8, !tbaa !18
  %137 = load ptr, ptr %5, align 8, !tbaa !60
  %138 = load i32, ptr %11, align 4, !tbaa !9
  %139 = sext i32 %138 to i64
  %140 = getelementptr inbounds %struct.ComplexMatrixN, ptr %137, i64 %139
  %141 = getelementptr inbounds nuw %struct.ComplexMatrixN, ptr %140, i32 0, i32 2
  %142 = load ptr, ptr %141, align 8, !tbaa !29
  %143 = load i32, ptr %14, align 4, !tbaa !9
  %144 = sext i32 %143 to i64
  %145 = getelementptr inbounds ptr, ptr %142, i64 %144
  %146 = load ptr, ptr %145, align 8, !tbaa !27
  %147 = load i32, ptr %15, align 4, !tbaa !9
  %148 = sext i32 %147 to i64
  %149 = getelementptr inbounds double, ptr %146, i64 %148
  %150 = load double, ptr %149, align 8, !tbaa !18
  %151 = fmul double %136, %150
  %152 = call double @llvm.fmuladd.f64(double %108, double %122, double %151)
  %153 = load ptr, ptr %4, align 8, !tbaa !60
  %154 = getelementptr inbounds nuw %struct.ComplexMatrixN, ptr %153, i32 0, i32 1
  %155 = load ptr, ptr %154, align 8, !tbaa !26
  %156 = load i32, ptr %12, align 4, !tbaa !9
  %157 = load i32, ptr %7, align 4, !tbaa !9
  %158 = mul nsw i32 %156, %157
  %159 = load i32, ptr %14, align 4, !tbaa !9
  %160 = add nsw i32 %158, %159
  %161 = sext i32 %160 to i64
  %162 = getelementptr inbounds ptr, ptr %155, i64 %161
  %163 = load ptr, ptr %162, align 8, !tbaa !27
  %164 = load i32, ptr %13, align 4, !tbaa !9
  %165 = load i32, ptr %7, align 4, !tbaa !9
  %166 = mul nsw i32 %164, %165
  %167 = load i32, ptr %15, align 4, !tbaa !9
  %168 = add nsw i32 %166, %167
  %169 = sext i32 %168 to i64
  %170 = getelementptr inbounds double, ptr %163, i64 %169
  %171 = load double, ptr %170, align 8, !tbaa !18
  %172 = fadd double %171, %152
  store double %172, ptr %170, align 8, !tbaa !18
  %173 = load ptr, ptr %5, align 8, !tbaa !60
  %174 = load i32, ptr %11, align 4, !tbaa !9
  %175 = sext i32 %174 to i64
  %176 = getelementptr inbounds %struct.ComplexMatrixN, ptr %173, i64 %175
  %177 = getelementptr inbounds nuw %struct.ComplexMatrixN, ptr %176, i32 0, i32 1
  %178 = load ptr, ptr %177, align 8, !tbaa !26
  %179 = load i32, ptr %12, align 4, !tbaa !9
  %180 = sext i32 %179 to i64
  %181 = getelementptr inbounds ptr, ptr %178, i64 %180
  %182 = load ptr, ptr %181, align 8, !tbaa !27
  %183 = load i32, ptr %13, align 4, !tbaa !9
  %184 = sext i32 %183 to i64
  %185 = getelementptr inbounds double, ptr %182, i64 %184
  %186 = load double, ptr %185, align 8, !tbaa !18
  %187 = load ptr, ptr %5, align 8, !tbaa !60
  %188 = load i32, ptr %11, align 4, !tbaa !9
  %189 = sext i32 %188 to i64
  %190 = getelementptr inbounds %struct.ComplexMatrixN, ptr %187, i64 %189
  %191 = getelementptr inbounds nuw %struct.ComplexMatrixN, ptr %190, i32 0, i32 2
  %192 = load ptr, ptr %191, align 8, !tbaa !29
  %193 = load i32, ptr %14, align 4, !tbaa !9
  %194 = sext i32 %193 to i64
  %195 = getelementptr inbounds ptr, ptr %192, i64 %194
  %196 = load ptr, ptr %195, align 8, !tbaa !27
  %197 = load i32, ptr %15, align 4, !tbaa !9
  %198 = sext i32 %197 to i64
  %199 = getelementptr inbounds double, ptr %196, i64 %198
  %200 = load double, ptr %199, align 8, !tbaa !18
  %201 = load ptr, ptr %5, align 8, !tbaa !60
  %202 = load i32, ptr %11, align 4, !tbaa !9
  %203 = sext i32 %202 to i64
  %204 = getelementptr inbounds %struct.ComplexMatrixN, ptr %201, i64 %203
  %205 = getelementptr inbounds nuw %struct.ComplexMatrixN, ptr %204, i32 0, i32 2
  %206 = load ptr, ptr %205, align 8, !tbaa !29
  %207 = load i32, ptr %12, align 4, !tbaa !9
  %208 = sext i32 %207 to i64
  %209 = getelementptr inbounds ptr, ptr %206, i64 %208
  %210 = load ptr, ptr %209, align 8, !tbaa !27
  %211 = load i32, ptr %13, align 4, !tbaa !9
  %212 = sext i32 %211 to i64
  %213 = getelementptr inbounds double, ptr %210, i64 %212
  %214 = load double, ptr %213, align 8, !tbaa !18
  %215 = load ptr, ptr %5, align 8, !tbaa !60
  %216 = load i32, ptr %11, align 4, !tbaa !9
  %217 = sext i32 %216 to i64
  %218 = getelementptr inbounds %struct.ComplexMatrixN, ptr %215, i64 %217
  %219 = getelementptr inbounds nuw %struct.ComplexMatrixN, ptr %218, i32 0, i32 1
  %220 = load ptr, ptr %219, align 8, !tbaa !26
  %221 = load i32, ptr %14, align 4, !tbaa !9
  %222 = sext i32 %221 to i64
  %223 = getelementptr inbounds ptr, ptr %220, i64 %222
  %224 = load ptr, ptr %223, align 8, !tbaa !27
  %225 = load i32, ptr %15, align 4, !tbaa !9
  %226 = sext i32 %225 to i64
  %227 = getelementptr inbounds double, ptr %224, i64 %226
  %228 = load double, ptr %227, align 8, !tbaa !18
  %229 = fmul double %214, %228
  %230 = fneg double %229
  %231 = call double @llvm.fmuladd.f64(double %186, double %200, double %230)
  %232 = load ptr, ptr %4, align 8, !tbaa !60
  %233 = getelementptr inbounds nuw %struct.ComplexMatrixN, ptr %232, i32 0, i32 2
  %234 = load ptr, ptr %233, align 8, !tbaa !29
  %235 = load i32, ptr %12, align 4, !tbaa !9
  %236 = load i32, ptr %7, align 4, !tbaa !9
  %237 = mul nsw i32 %235, %236
  %238 = load i32, ptr %14, align 4, !tbaa !9
  %239 = add nsw i32 %237, %238
  %240 = sext i32 %239 to i64
  %241 = getelementptr inbounds ptr, ptr %234, i64 %240
  %242 = load ptr, ptr %241, align 8, !tbaa !27
  %243 = load i32, ptr %13, align 4, !tbaa !9
  %244 = load i32, ptr %7, align 4, !tbaa !9
  %245 = mul nsw i32 %243, %244
  %246 = load i32, ptr %15, align 4, !tbaa !9
  %247 = add nsw i32 %245, %246
  %248 = sext i32 %247 to i64
  %249 = getelementptr inbounds double, ptr %242, i64 %248
  %250 = load double, ptr %249, align 8, !tbaa !18
  %251 = fadd double %250, %231
  store double %251, ptr %249, align 8, !tbaa !18
  br label %252

252:                                              ; preds = %94
  %253 = load i32, ptr %15, align 4, !tbaa !9
  %254 = add nsw i32 %253, 1
  store i32 %254, ptr %15, align 4, !tbaa !9
  br label %89

255:                                              ; preds = %93
  br label %256

256:                                              ; preds = %255
  %257 = load i32, ptr %14, align 4, !tbaa !9
  %258 = add nsw i32 %257, 1
  store i32 %258, ptr %14, align 4, !tbaa !9
  br label %83

259:                                              ; preds = %87
  br label %260

260:                                              ; preds = %259
  %261 = load i32, ptr %13, align 4, !tbaa !9
  %262 = add nsw i32 %261, 1
  store i32 %262, ptr %13, align 4, !tbaa !9
  br label %77

263:                                              ; preds = %81
  br label %264

264:                                              ; preds = %263
  %265 = load i32, ptr %12, align 4, !tbaa !9
  %266 = add nsw i32 %265, 1
  store i32 %266, ptr %12, align 4, !tbaa !9
  br label %71

267:                                              ; preds = %75
  br label %268

268:                                              ; preds = %267
  %269 = load i32, ptr %11, align 4, !tbaa !9
  %270 = add nsw i32 %269, 1
  store i32 %270, ptr %11, align 4, !tbaa !9
  br label %65

271:                                              ; preds = %69
  call void @llvm.lifetime.end.p0(i64 4, ptr %7) #8
  ret void
}