; Function Attrs: nofree norecurse nosync nounwind memory(readwrite, inaccessiblemem: none) uwtable
define void @populateKrausSuperOperatorN(ptr noundef readonly captures(none) %0, ptr noundef readonly captures(none) %1, i32 noundef %2) local_unnamed_addr #8 {
  %4 = load i32, ptr %1, align 8, !tbaa !14
  %5 = shl nuw i32 1, %4
  %6 = shl i32 %5, %4
  %7 = icmp sgt i32 %6, 0
  br i1 %7, label %.preheader87.lr.ph, label %.preheader86

.preheader87.lr.ph:                               ; preds = %3
  %8 = getelementptr inbounds nuw i8, ptr %0, i64 8
  %9 = getelementptr inbounds nuw i8, ptr %0, i64 16
  %10 = load ptr, ptr %8, align 8, !tbaa !41
  %11 = load ptr, ptr %9, align 8, !tbaa !42
  %wide.trip.count103 = zext nneg i32 %6 to i64
  br label %.preheader87.us

.preheader87.us:                                  ; preds = %._crit_edge.us, %.preheader87.lr.ph
  %indvars.iv100 = phi i64 [ %indvars.iv.next101, %._crit_edge.us ], [ 0, %.preheader87.lr.ph ]
  %12 = getelementptr inbounds nuw ptr, ptr %10, i64 %indvars.iv100
  %13 = load ptr, ptr %12, align 8, !tbaa !19
  %14 = getelementptr inbounds nuw ptr, ptr %11, i64 %indvars.iv100
  %15 = load ptr, ptr %14, align 8, !tbaa !19
  br label %16

16:                                               ; preds = %.preheader87.us, %16
  %indvars.iv = phi i64 [ 0, %.preheader87.us ], [ %indvars.iv.next, %16 ]
  %17 = getelementptr inbounds nuw double, ptr %13, i64 %indvars.iv
  store double 0.000000e+00, ptr %17, align 8, !tbaa !13
  %18 = getelementptr inbounds nuw double, ptr %15, i64 %indvars.iv
  store double 0.000000e+00, ptr %18, align 8, !tbaa !13
  %indvars.iv.next = add nuw nsw i64 %indvars.iv, 1
  %exitcond.not = icmp eq i64 %indvars.iv.next, %wide.trip.count103
  br i1 %exitcond.not, label %._crit_edge.us, label %16

._crit_edge.us:                                   ; preds = %16
  %indvars.iv.next101 = add nuw nsw i64 %indvars.iv100, 1
  %exitcond104.not = icmp eq i64 %indvars.iv.next101, %wide.trip.count103
  br i1 %exitcond104.not, label %.preheader86, label %.preheader87.us

.preheader86:                                     ; preds = %._crit_edge.us, %3
  %19 = icmp slt i32 %2, 1
  %.not = icmp eq i32 %4, 31
  %or.cond = or i1 %19, %.not
  br i1 %or.cond, label %._crit_edge, label %.preheader85.lr.ph.split.us

.preheader85.lr.ph.split.us:                      ; preds = %.preheader86
  %20 = getelementptr inbounds nuw i8, ptr %0, i64 16
  %21 = getelementptr inbounds nuw i8, ptr %0, i64 8
  %22 = load ptr, ptr %21, align 8, !tbaa !41
  %23 = load ptr, ptr %20, align 8, !tbaa !42
  %smax = tail call i32 @llvm.smax.i32(i32 %5, i32 1)
  %wide.trip.count128 = zext nneg i32 %2 to i64
  %wide.trip.count123 = zext nneg i32 %smax to i64
  br label %.preheader85.us

.preheader85.us:                                  ; preds = %._crit_edge.split.us96.us, %.preheader85.lr.ph.split.us
  %indvars.iv125 = phi i64 [ %indvars.iv.next126, %._crit_edge.split.us96.us ], [ 0, %.preheader85.lr.ph.split.us ]
  %24 = getelementptr inbounds nuw %struct.ComplexMatrixN, ptr %1, i64 %indvars.iv125
  %25 = getelementptr inbounds nuw i8, ptr %24, i64 8
  %26 = getelementptr inbounds nuw i8, ptr %24, i64 16
  %27 = load ptr, ptr %25, align 8, !tbaa !41
  %28 = load ptr, ptr %26, align 8, !tbaa !42
  br label %.preheader84.us.us

.preheader84.us.us:                               ; preds = %._crit_edge.split.us.us.us, %.preheader85.us
  %indvars.iv120 = phi i64 [ %indvars.iv.next121, %._crit_edge.split.us.us.us ], [ 0, %.preheader85.us ]
  %29 = trunc nuw nsw i64 %indvars.iv120 to i32
  %30 = shl i32 %29, %4
  %31 = getelementptr inbounds nuw ptr, ptr %27, i64 %indvars.iv120
  %32 = load ptr, ptr %31, align 8, !tbaa !19
  %33 = getelementptr inbounds nuw ptr, ptr %28, i64 %indvars.iv120
  %34 = load ptr, ptr %33, align 8, !tbaa !19
  %35 = sext i32 %30 to i64
  br label %.preheader83.us.us.us

.preheader83.us.us.us:                            ; preds = %._crit_edge92.split.us.us.us.us, %.preheader84.us.us
  %indvars.iv115 = phi i64 [ %indvars.iv.next116, %._crit_edge92.split.us.us.us.us ], [ 0, %.preheader84.us.us ]
  %36 = trunc nuw nsw i64 %indvars.iv115 to i32
  %37 = shl i32 %36, %4
  %38 = getelementptr inbounds nuw double, ptr %32, i64 %indvars.iv115
  %39 = getelementptr inbounds nuw double, ptr %34, i64 %indvars.iv115
  %40 = sext i32 %37 to i64
  br label %.preheader.us.us.us.us

.preheader.us.us.us.us:                           ; preds = %._crit_edge.us93.us.us.us, %.preheader83.us.us.us
  %indvars.iv110 = phi i64 [ %indvars.iv.next111, %._crit_edge.us93.us.us.us ], [ 0, %.preheader83.us.us.us ]
  %41 = getelementptr inbounds nuw ptr, ptr %27, i64 %indvars.iv110
  %42 = load ptr, ptr %41, align 8, !tbaa !19
  %43 = getelementptr inbounds nuw ptr, ptr %28, i64 %indvars.iv110
  %44 = load ptr, ptr %43, align 8, !tbaa !19
  %45 = add nsw i64 %indvars.iv110, %35
  %46 = getelementptr inbounds ptr, ptr %22, i64 %45
  %47 = load ptr, ptr %46, align 8, !tbaa !19
  %48 = getelementptr inbounds ptr, ptr %23, i64 %45
  %49 = load ptr, ptr %48, align 8, !tbaa !19
  br label %50

50:                                               ; preds = %50, %.preheader.us.us.us.us
  %indvars.iv105 = phi i64 [ %indvars.iv.next106, %50 ], [ 0, %.preheader.us.us.us.us ]
  %51 = load double, ptr %38, align 8, !tbaa !13
  %52 = getelementptr inbounds nuw double, ptr %42, i64 %indvars.iv105
  %53 = load double, ptr %52, align 8, !tbaa !13
  %54 = load double, ptr %39, align 8, !tbaa !13
  %55 = getelementptr inbounds nuw double, ptr %44, i64 %indvars.iv105
  %56 = load double, ptr %55, align 8, !tbaa !13
  %57 = fmul double %54, %56
  %58 = tail call double @llvm.fmuladd.f64(double %51, double %53, double %57)
  %59 = add nsw i64 %indvars.iv105, %40
  %60 = getelementptr inbounds double, ptr %47, i64 %59
  %61 = load double, ptr %60, align 8, !tbaa !13
  %62 = fadd double %58, %61
  store double %62, ptr %60, align 8, !tbaa !13
  %63 = load double, ptr %38, align 8, !tbaa !13
  %64 = load double, ptr %55, align 8, !tbaa !13
  %65 = load double, ptr %39, align 8, !tbaa !13
  %66 = load double, ptr %52, align 8, !tbaa !13
  %67 = fneg double %66
  %68 = fmul double %65, %67
  %69 = tail call double @llvm.fmuladd.f64(double %63, double %64, double %68)
  %70 = getelementptr inbounds double, ptr %49, i64 %59
  %71 = load double, ptr %70, align 8, !tbaa !13
  %72 = fadd double %69, %71
  store double %72, ptr %70, align 8, !tbaa !13
  %indvars.iv.next106 = add nuw nsw i64 %indvars.iv105, 1
  %exitcond109.not = icmp eq i64 %indvars.iv.next106, %wide.trip.count123
  br i1 %exitcond109.not, label %._crit_edge.us93.us.us.us, label %50

._crit_edge.us93.us.us.us:                        ; preds = %50
  %indvars.iv.next111 = add nuw nsw i64 %indvars.iv110, 1
  %exitcond114.not = icmp eq i64 %indvars.iv.next111, %wide.trip.count123
  br i1 %exitcond114.not, label %._crit_edge92.split.us.us.us.us, label %.preheader.us.us.us.us

._crit_edge92.split.us.us.us.us:                  ; preds = %._crit_edge.us93.us.us.us
  %indvars.iv.next116 = add nuw nsw i64 %indvars.iv115, 1
  %exitcond119.not = icmp eq i64 %indvars.iv.next116, %wide.trip.count123
  br i1 %exitcond119.not, label %._crit_edge.split.us.us.us, label %.preheader83.us.us.us

._crit_edge.split.us.us.us:                       ; preds = %._crit_edge92.split.us.us.us.us
  %indvars.iv.next121 = add nuw nsw i64 %indvars.iv120, 1
  %exitcond124.not = icmp eq i64 %indvars.iv.next121, %wide.trip.count123
  br i1 %exitcond124.not, label %._crit_edge.split.us96.us, label %.preheader84.us.us

._crit_edge.split.us96.us:                        ; preds = %._crit_edge.split.us.us.us
  %indvars.iv.next126 = add nuw nsw i64 %indvars.iv125, 1
  %exitcond129.not = icmp eq i64 %indvars.iv.next126, %wide.trip.count128
  br i1 %exitcond129.not, label %._crit_edge, label %.preheader85.us

._crit_edge:                                      ; preds = %._crit_edge.split.us96.us, %.preheader86
  ret void
}